target datalayout = "e-m:e-p270:32:32-p271:32:32-p272:64:64-i64:64-i128:128-f80:128-n8:16:32:64-S128"
target triple = "x86_64-pc-linux-gnu"

%struct.quic_info_data = type { i32, i32, ptr, i16, i32, i32, i32, %struct.quic_ciphers, %struct.quic_ciphers, %struct.quic_ciphers, %struct.quic_ciphers, %struct.quic_ciphers, %struct.quic_pp_state, %struct.quic_pp_state, [3 x i64], [3 x i64], ptr, ptr, %struct.quic_cid_item, %struct.quic_cid_item, %struct.quic_cid, ptr, ptr, ptr, ptr, ptr, ptr, ptr, ptr, ptr, ptr }
%struct.quic_ciphers = type { %struct.quic_hp_cipher, %struct.quic_pp_cipher }
%struct.quic_hp_cipher = type { ptr }
%struct.quic_pp_cipher = type { ptr, [12 x i8] }
%struct.quic_pp_state = type { ptr, [2 x %struct.quic_pp_cipher], %struct.quic_hp_cipher, i64, i8 }
%struct.quic_cid_item = type { ptr, %struct.quic_cid }
%struct.quic_cid = type { i8, [20 x i8], [16 x i8], i8, i64, i64 }

; Function Attrs: inlinehint nounwind null_pointer_is_valid sspstrong uwtable
define internal zeroext i1 @is_quic_v2(i32 noundef %0) #10 {
  %2 = alloca i32, align 4
  store i32 %0, ptr %2, align 4
  %3 = load i32, ptr %2, align 4
  %4 = icmp eq i32 %3, 1798521807
  ret i1 %4
}

; Function Attrs: nounwind null_pointer_is_valid sspstrong uwtable
define internal i32 @quic_multipath_negotiated(ptr noundef %0) #3 {
  %2 = alloca i32, align 4
  %3 = alloca ptr, align 8
  store ptr %0, ptr %3, align 8
  %4 = load ptr, ptr %3, align 8
  %5 = getelementptr inbounds nuw %struct.quic_info_data, ptr %4, i32 0, i32 3
  %6 = load i16, ptr %5, align 8
  %7 = lshr i16 %6, 6
  %8 = and i16 %7, 3
  %9 = zext i16 %8 to i32
  %10 = load ptr, ptr %3, align 8
  %11 = getelementptr inbounds nuw %struct.quic_info_data, ptr %10, i32 0, i32 3
  %12 = load i16, ptr %11, align 8
  %13 = lshr i16 %12, 8
  %14 = and i16 %13, 3
  %15 = zext i16 %14 to i32
  %16 = icmp ne i32 %9, %15
  br i1 %16, label %17, label %18

17:                                               ; preds = %1
  store i32 0, ptr %2, align 4
  br label %25

18:                                               ; preds = %1
  %19 = load ptr, ptr %3, align 8
  %20 = getelementptr inbounds nuw %struct.quic_info_data, ptr %19, i32 0, i32 3
  %21 = load i16, ptr %20, align 8
  %22 = lshr i16 %21, 6
  %23 = and i16 %22, 3
  %24 = zext i16 %23 to i32
  store i32 %24, ptr %2, align 4
  br label %25

25:                                               ; preds = %18, %17
  %26 = load i32, ptr %2, align 4
  ret i32 %26
}

; Function Attrs: null_pointer_is_valid sspstrong uwtable
define internal i32 @quic_get_long_packet_type(i8 noundef zeroext %0, i32 noundef %1) #0 {
  %3 = alloca i32, align 4
  %4 = alloca i8, align 1
  %5 = alloca i32, align 4
  store i8 %0, ptr %4, align 1
  store i32 %1, ptr %5, align 4
  %6 = load i32, ptr %5, align 4
  %7 = call zeroext i1 @is_quic_v2(i32 noundef %6)
  br i1 %7, label %30, label %8

8:                                                ; preds = %2
  %9 = load i8, ptr %4, align 1
  %10 = zext i8 %9 to i32
  %11 = and i32 %10, 48
  %12 = ashr i32 %11, 4
  %13 = icmp eq i32 %12, 0
  br i1 %13, label %14, label %15

14:                                               ; preds = %8
  store i32 0, ptr %3, align 4
  br label %52

15:                                               ; preds = %8
  %16 = load i8, ptr %4, align 1
  %17 = zext i8 %16 to i32
  %18 = and i32 %17, 48
  %19 = ashr i32 %18, 4
  %20 = icmp eq i32 %19, 1
  br i1 %20, label %21, label %22

21:                                               ; preds = %15
  store i32 1, ptr %3, align 4
  br label %52

22:                                               ; preds = %15
  %23 = load i8, ptr %4, align 1
  %24 = zext i8 %23 to i32
  %25 = and i32 %24, 48
  %26 = ashr i32 %25, 4
  %27 = icmp eq i32 %26, 2
  br i1 %27, label %28, label %29

28:                                               ; preds = %22
  store i32 2, ptr %3, align 4
  br label %52

29:                                               ; preds = %22
  store i32 3, ptr %3, align 4
  br label %52

30:                                               ; preds = %2
  %31 = load i8, ptr %4, align 1
  %32 = zext i8 %31 to i32
  %33 = and i32 %32, 48
  %34 = ashr i32 %33, 4
  %35 = icmp eq i32 %34, 0
  br i1 %35, label %36, label %37

36:                                               ; preds = %30
  store i32 3, ptr %3, align 4
  br label %52

37:                                               ; preds = %30
  %38 = load i8, ptr %4, align 1
  %39 = zext i8 %38 to i32
  %40 = and i32 %39, 48
  %41 = ashr i32 %40, 4
  %42 = icmp eq i32 %41, 1
  br i1 %42, label %43, label %44

43:                                               ; preds = %37
  store i32 0, ptr %3, align 4
  br label %52

44:                                               ; preds = %37
  %45 = load i8, ptr %4, align 1
  %46 = zext i8 %45 to i32
  %47 = and i32 %46, 48
  %48 = ashr i32 %47, 4
  %49 = icmp eq i32 %48, 2
  br i1 %49, label %50, label %51

50:                                               ; preds = %44
  store i32 1, ptr %3, align 4
  br label %52

51:                                               ; preds = %44
  store i32 2, ptr %3, align 4
  br label %52

52:                                               ; preds = %51, %50, %43, %36, %29, %28, %21, %14
  %53 = load i32, ptr %3, align 4
  ret i32 %53
}

; Function Attrs: null_pointer_is_valid sspstrong uwtable
define internal ptr @quic_max_packet_number(ptr noundef %0, i64 noundef %1, i1 noundef zeroext %2, i8 noundef zeroext %3) #0 {
  %5 = alloca ptr, align 8
  %6 = alloca ptr, align 8
  %7 = alloca i64, align 8
  %8 = alloca i8, align 1
  %9 = alloca i8, align 1
  %10 = alloca i32, align 4
  %11 = alloca ptr, align 8
  %12 = alloca ptr, align 8
  %13 = alloca ptr, align 8
  %14 = alloca i32, align 4
  store ptr %0, ptr %6, align 8
  store i64 %1, ptr %7, align 8
  %15 = zext i1 %2 to i8
  store i8 %15, ptr %8, align 1
  store i8 %3, ptr %9, align 1
  call void @llvm.lifetime.start.p0(i64 4, ptr %10) #19
  %16 = load i8, ptr %9, align 1
  %17 = zext i8 %16 to i32
  %18 = and i32 %17, 128
  %19 = icmp ne i32 %18, 0
  br i1 %19, label %20, label %28

20:                                               ; preds = %4
  %21 = load i8, ptr %9, align 1
  %22 = load ptr, ptr %6, align 8
  %23 = getelementptr inbounds nuw %struct.quic_info_data, ptr %22, i32 0, i32 1
  %24 = load i32, ptr %23, align 4
  %25 = call i32 @quic_get_long_packet_type(i8 noundef zeroext %21, i32 noundef %24)
  %26 = icmp eq i32 %25, 0
  br i1 %26, label %27, label %28

27:                                               ; preds = %20
  store i32 0, ptr %10, align 4
  br label %43

28:                                               ; preds = %20, %4
  %29 = load i8, ptr %9, align 1
  %30 = zext i8 %29 to i32
  %31 = and i32 %30, 128
  %32 = icmp ne i32 %31, 0
  br i1 %32, label %33, label %41

33:                                               ; preds = %28
  %34 = load i8, ptr %9, align 1
  %35 = load ptr, ptr %6, align 8
  %36 = getelementptr inbounds nuw %struct.quic_info_data, ptr %35, i32 0, i32 1
  %37 = load i32, ptr %36, align 4
  %38 = call i32 @quic_get_long_packet_type(i8 noundef zeroext %34, i32 noundef %37)
  %39 = icmp eq i32 %38, 2
  br i1 %39, label %40, label %41

40:                                               ; preds = %33
  store i32 1, ptr %10, align 4
  br label %42

41:                                               ; preds = %33, %28
  store i32 2, ptr %10, align 4
  br label %42

42:                                               ; preds = %41, %40
  br label %43

43:                                               ; preds = %42, %27
  %44 = load ptr, ptr %6, align 8
  %45 = call i32 @quic_multipath_negotiated(ptr noundef %44)
  %46 = icmp ne i32 %45, 0
  br i1 %46, label %47, label %99

47:                                               ; preds = %43
  %48 = load i64, ptr %7, align 8
  %49 = icmp ugt i64 %48, 0
  br i1 %49, label %50, label %99

50:                                               ; preds = %47
  call void @llvm.lifetime.start.p0(i64 8, ptr %11) #19
  %51 = load i8, ptr %8, align 1, !range !6, !noundef !7
  %52 = trunc i8 %51 to i1
  br i1 %52, label %53, label %66

53:                                               ; preds = %50
  %54 = load ptr, ptr %6, align 8
  %55 = getelementptr inbounds nuw %struct.quic_info_data, ptr %54, i32 0, i32 17
  %56 = load ptr, ptr %55, align 8
  %57 = icmp eq ptr %56, null
  br i1 %57, label %58, label %63

58:                                               ; preds = %53
  %59 = call ptr @wmem_file_scope()
  %60 = call noalias ptr @wmem_map_new(ptr noundef %59, ptr noundef @wmem_int64_hash, ptr noundef @g_int64_equal)
  %61 = load ptr, ptr %6, align 8
  %62 = getelementptr inbounds nuw %struct.quic_info_data, ptr %61, i32 0, i32 17
  store ptr %60, ptr %62, align 8
  br label %63

63:                                               ; preds = %58, %53
  %64 = load ptr, ptr %6, align 8
  %65 = getelementptr inbounds nuw %struct.quic_info_data, ptr %64, i32 0, i32 17
  store ptr %65, ptr %11, align 8
  br label %79

66:                                               ; preds = %50
  %67 = load ptr, ptr %6, align 8
  %68 = getelementptr inbounds nuw %struct.quic_info_data, ptr %67, i32 0, i32 16
  %69 = load ptr, ptr %68, align 8
  %70 = icmp eq ptr %69, null
  br i1 %70, label %71, label %76

71:                                               ; preds = %66
  %72 = call ptr @wmem_file_scope()
  %73 = call noalias ptr @wmem_map_new(ptr noundef %72, ptr noundef @wmem_int64_hash, ptr noundef @g_int64_equal)
  %74 = load ptr, ptr %6, align 8
  %75 = getelementptr inbounds nuw %struct.quic_info_data, ptr %74, i32 0, i32 16
  store ptr %73, ptr %75, align 8
  br label %76

76:                                               ; preds = %71, %66
  %77 = load ptr, ptr %6, align 8
  %78 = getelementptr inbounds nuw %struct.quic_info_data, ptr %77, i32 0, i32 16
  store ptr %78, ptr %11, align 8
  br label %79

79:                                               ; preds = %76, %63
  call void @llvm.lifetime.start.p0(i64 8, ptr %12) #19
  %80 = load ptr, ptr %11, align 8
  %81 = load ptr, ptr %80, align 8
  %82 = call ptr @wmem_map_lookup(ptr noundef %81, ptr noundef %7)
  store ptr %82, ptr %12, align 8
  %83 = load ptr, ptr %12, align 8
  %84 = icmp eq ptr %83, null
  br i1 %84, label %85, label %97

85:                                               ; preds = %79
  call void @llvm.lifetime.start.p0(i64 8, ptr %13) #19
  %86 = call ptr @wmem_file_scope()
  %87 = call noalias ptr @wmem_alloc(ptr noundef %86, i64 noundef 8) #21
  store ptr %87, ptr %13, align 8
  %88 = load i64, ptr %7, align 8
  %89 = load ptr, ptr %13, align 8
  store i64 %88, ptr %89, align 8
  %90 = call ptr @wmem_file_scope()
  %91 = call noalias ptr @wmem_alloc0(ptr noundef %90, i64 noundef 8) #21
  store ptr %91, ptr %12, align 8
  %92 = load ptr, ptr %11, align 8
  %93 = load ptr, ptr %92, align 8
  %94 = load ptr, ptr %13, align 8
  %95 = load ptr, ptr %12, align 8
  %96 = call ptr @wmem_map_insert(ptr noundef %93, ptr noundef %94, ptr noundef %95)
  call void @llvm.lifetime.end.p0(i64 8, ptr %13) #19
  br label %97

97:                                               ; preds = %85, %79
  %98 = load ptr, ptr %12, align 8
  store ptr %98, ptr %5, align 8
  store i32 1, ptr %14, align 4
  call void @llvm.lifetime.end.p0(i64 8, ptr %12) #19
  call void @llvm.lifetime.end.p0(i64 8, ptr %11) #19
  br label %114

99:                                               ; preds = %47, %43
  %100 = load i8, ptr %8, align 1, !range !6, !noundef !7
  %101 = trunc i8 %100 to i1
  br i1 %101, label %102, label %108

102:                                              ; preds = %99
  %103 = load ptr, ptr %6, align 8
  %104 = getelementptr inbounds nuw %struct.quic_info_data, ptr %103, i32 0, i32 15
  %105 = load i32, ptr %10, align 4
  %106 = sext i32 %105 to i64
  %107 = getelementptr [3 x i64], ptr %104, i64 0, i64 %106
  store ptr %107, ptr %5, align 8
  store i32 1, ptr %14, align 4
  br label %114

108:                                              ; preds = %99
  %109 = load ptr, ptr %6, align 8
  %110 = getelementptr inbounds nuw %struct.quic_info_data, ptr %109, i32 0, i32 14
  %111 = load i32, ptr %10, align 4
  %112 = sext i32 %111 to i64
  %113 = getelementptr [3 x i64], ptr %110, i64 0, i64 %112
  store ptr %113, ptr %5, align 8
  store i32 1, ptr %14, align 4
  br label %114

114:                                              ; preds = %108, %102, %97
  call void @llvm.lifetime.end.p0(i64 4, ptr %10) #19
  %115 = load ptr, ptr %5, align 8
  ret ptr %115
}