; Function Attrs: null_pointer_is_valid sspstrong uwtable
define internal fastcc ptr @quic_max_packet_number(ptr noundef nonnull captures(ret: address, provenance) %0, i64 noundef %1, i1 noundef zeroext %2, i8 noundef zeroext %3) unnamed_addr #0 {
  %5 = alloca i64, align 8
  store i64 %1, ptr %5, align 8
  %.not = icmp sgt i8 %3, -1
  br i1 %.not, label %quic_get_long_packet_type.exit, label %quic_get_long_packet_type.exit.sink.split

quic_get_long_packet_type.exit.sink.split:        ; preds = %4
  %6 = getelementptr inbounds nuw i8, ptr %0, i64 4
  %7 = load i32, ptr %6, align 4
  %8 = icmp eq i32 %7, 1798521807
  %9 = lshr i8 %3, 4
  %10 = and i8 %9, 3
  %switch.table.quic_max_packet_number.18.switch.table.quic_max_packet_number = select i1 %8, ptr @switch.table.quic_max_packet_number.18, ptr @switch.table.quic_max_packet_number
  %11 = zext nneg i8 %10 to i64
  %switch.gep42 = getelementptr inbounds nuw [4 x i64], ptr %switch.table.quic_max_packet_number.18.switch.table.quic_max_packet_number, i64 0, i64 %11
  %switch.load43 = load i64, ptr %switch.gep42, align 8
  br label %quic_get_long_packet_type.exit

quic_get_long_packet_type.exit:                   ; preds = %quic_get_long_packet_type.exit.sink.split, %4
  %.029 = phi i64 [ 2, %4 ], [ %switch.load43, %quic_get_long_packet_type.exit.sink.split ]
  %12 = getelementptr i8, ptr %0, i64 16
  %.val = load i16, ptr %12, align 8
  %13 = lshr i16 %.val, 6
  %14 = and i16 %13, 3
  %15 = lshr i16 %.val, 8
  %16 = and i16 %15, 3
  %.not.i = icmp eq i16 %14, %16
  %17 = icmp ne i16 %14, 0
  %18 = and i1 %.not.i, %17
  %19 = icmp ne i64 %1, 0
  %or.cond = and i1 %19, %18
  br i1 %or.cond, label %20, label %47

20:                                               ; preds = %quic_get_long_packet_type.exit
  br i1 %2, label %21, label %28

21:                                               ; preds = %20
  %22 = getelementptr inbounds nuw i8, ptr %0, i64 408
  %23 = load ptr, ptr %22, align 8
  %24 = icmp eq ptr %23, null
  br i1 %24, label %25, label %35

25:                                               ; preds = %21
  %26 = tail call ptr @wmem_file_scope()
  %27 = tail call noalias ptr @wmem_map_new(ptr noundef %26, ptr noundef nonnull @wmem_int64_hash, ptr noundef nonnull @g_int64_equal)
  store ptr %27, ptr %22, align 8
  br label %35

28:                                               ; preds = %20
  %29 = getelementptr inbounds nuw i8, ptr %0, i64 400
  %30 = load ptr, ptr %29, align 8
  %31 = icmp eq ptr %30, null
  br i1 %31, label %32, label %35

32:                                               ; preds = %28
  %33 = tail call ptr @wmem_file_scope()
  %34 = tail call noalias ptr @wmem_map_new(ptr noundef %33, ptr noundef nonnull @wmem_int64_hash, ptr noundef nonnull @g_int64_equal)
  store ptr %34, ptr %29, align 8
  br label %35

35:                                               ; preds = %28, %32, %21, %25
  %36 = phi ptr [ %27, %25 ], [ %23, %21 ], [ %34, %32 ], [ %30, %28 ]
  %.028 = phi ptr [ %22, %25 ], [ %22, %21 ], [ %29, %32 ], [ %29, %28 ]
  %37 = call ptr @wmem_map_lookup(ptr noundef %36, ptr noundef nonnull %5)
  %38 = icmp eq ptr %37, null
  br i1 %38, label %39, label %54

39:                                               ; preds = %35
  %40 = call ptr @wmem_file_scope()
  %41 = call noalias dereferenceable_or_null(8) ptr @wmem_alloc(ptr noundef %40, i64 noundef 8) #17
  %42 = load i64, ptr %5, align 8
  store i64 %42, ptr %41, align 8
  %43 = call ptr @wmem_file_scope()
  %44 = call noalias dereferenceable_or_null(8) ptr @wmem_alloc0(ptr noundef %43, i64 noundef 8) #17
  %45 = load ptr, ptr %.028, align 8
  %46 = call ptr @wmem_map_insert(ptr noundef %45, ptr noundef %41, ptr noundef %44)
  br label %54

47:                                               ; preds = %quic_get_long_packet_type.exit
  br i1 %2, label %48, label %51

48:                                               ; preds = %47
  %49 = getelementptr inbounds nuw i8, ptr %0, i64 376
  %50 = getelementptr [3 x i64], ptr %49, i64 0, i64 %.029
  br label %54

51:                                               ; preds = %47
  %52 = getelementptr inbounds nuw i8, ptr %0, i64 352
  %53 = getelementptr [3 x i64], ptr %52, i64 0, i64 %.029
  br label %54

54:                                               ; preds = %35, %39, %51, %48
  %.0 = phi ptr [ %50, %48 ], [ %53, %51 ], [ %44, %39 ], [ %37, %35 ]
  ret ptr %.0
}